target datalayout = "e-m:e-p270:32:32-p271:32:32-p272:64:64-i64:64-i128:128-f80:128-n8:16:32:64-S128"
target triple = "x86_64-unknown-linux-gnu"

%"struct.std::atomic" = type { %"struct.std::__atomic_base" }
%"struct.std::__atomic_base" = type { i64 }
%"class.rocksdb::UnpredictableUniqueIdGen" = type { %"struct.std::array", %"struct.std::atomic", [24 x i8] }
%"struct.std::array" = type { [4 x %"struct.std::atomic"] }

; Function Attrs: mustprogress nounwind uwtable
define linkonce_odr noundef nonnull align 8 dereferenceable(8) ptr @_ZNSt14__array_traitsISt6atomicImELm4EE6_S_refERA4_KS1_m(ptr noundef nonnull align 8 dereferenceable(32) %__t, i64 noundef %__n) #2 comdat align 2 {
entry:
  %__t.addr = alloca ptr, align 8
  %__n.addr = alloca i64, align 8
  store ptr %__t, ptr %__t.addr, align 8
  store i64 %__n, ptr %__n.addr, align 8
  %0 = load ptr, ptr %__t.addr, align 8
  %1 = load i64, ptr %__n.addr, align 8
  %arrayidx = getelementptr inbounds [4 x %"struct.std::atomic"], ptr %0, i64 0, i64 %1
  ret ptr %arrayidx
}

; Function Attrs: mustprogress nounwind uwtable
define linkonce_odr noundef i32 @_ZStanSt12memory_orderSt23__memory_order_modifier(i32 noundef %__m, i32 noundef %__mod) #2 comdat {
entry:
  %__m.addr = alloca i32, align 4
  %__mod.addr = alloca i32, align 4
  store i32 %__m, ptr %__m.addr, align 4
  store i32 %__mod, ptr %__mod.addr, align 4
  %0 = load i32, ptr %__m.addr, align 4
  %1 = load i32, ptr %__mod.addr, align 4
  %and = and i32 %0, %1
  ret i32 %and
}

; Function Attrs: mustprogress nounwind uwtable
define linkonce_odr noundef nonnull align 8 dereferenceable(8) ptr @_ZNSt5arrayISt6atomicImELm4EEixEm(ptr noundef nonnull align 8 dereferenceable(32) %this, i64 noundef %__n) #2 comdat align 2 {
entry:
  %this.addr = alloca ptr, align 8
  %__n.addr = alloca i64, align 8
  store ptr %this, ptr %this.addr, align 8
  store i64 %__n, ptr %__n.addr, align 8
  %this1 = load ptr, ptr %this.addr, align 8
  %_M_elems = getelementptr inbounds %"struct.std::array", ptr %this1, i32 0, i32 0
  %0 = load i64, ptr %__n.addr, align 8
  %call = call noundef nonnull align 8 dereferenceable(8) ptr @_ZNSt14__array_traitsISt6atomicImELm4EE6_S_refERA4_KS1_m(ptr noundef nonnull align 8 dereferenceable(32) %_M_elems, i64 noundef %0) #4
  ret ptr %call
}

; Function Attrs: mustprogress nounwind willreturn memory(none) uwtable
define linkonce_odr noundef i64 @_ZNKSt5arrayISt6atomicImELm4EE4sizeEv(ptr noundef nonnull align 8 dereferenceable(32) %this) #3 comdat align 2 {
entry:
  %this.addr = alloca ptr, align 8
  store ptr %this, ptr %this.addr, align 8
  ret i64 4
}

; Function Attrs: mustprogress uwtable
define void @_ZN7rocksdb24UnpredictableUniqueIdGen23GenerateNextWithEntropyEPmS1_m(ptr noundef nonnull align 64 dereferenceable(40) %this, ptr noundef %upper, ptr noundef %lower, i64 noundef %extra_entropy) #0 align 2 {
entry:
  %this.addr.i35 = alloca ptr, align 8
  %__m.addr.i36 = alloca i32, align 4
  %__b.i37 = alloca i32, align 4
  %atomic-temp.i38 = alloca i64, align 8
  %this.addr.i28 = alloca ptr, align 8
  %__m.addr.i29 = alloca i32, align 4
  %__b.i = alloca i32, align 4
  %atomic-temp.i30 = alloca i64, align 8
  %this.addr.i16 = alloca ptr, align 8
  %__i.addr.i17 = alloca i64, align 8
  %__m.addr.i18 = alloca i32, align 4
  %.atomictmp.i19 = alloca i64, align 8
  %atomic-temp.i20 = alloca i64, align 8
  %this.addr.i = alloca ptr, align 8
  %__i.addr.i = alloca i64, align 8
  %__m.addr.i = alloca i32, align 4
  %.atomictmp.i = alloca i64, align 8
  %atomic-temp.i = alloca i64, align 8
  %this.addr = alloca ptr, align 8
  %upper.addr = alloca ptr, align 8
  %lower.addr = alloca ptr, align 8
  %extra_entropy.addr = alloca i64, align 8
  %count = alloca i64, align 8
  %a = alloca i64, align 8
  %b = alloca i64, align 8
  %i = alloca i64, align 8
  store ptr %this, ptr %this.addr, align 8
  store ptr %upper, ptr %upper.addr, align 8
  store ptr %lower, ptr %lower.addr, align 8
  store i64 %extra_entropy, ptr %extra_entropy.addr, align 8
  %this1 = load ptr, ptr %this.addr, align 8
  %counter_ = getelementptr inbounds %"class.rocksdb::UnpredictableUniqueIdGen", ptr %this1, i32 0, i32 1
  store ptr %counter_, ptr %this.addr.i16, align 8
  store i64 1, ptr %__i.addr.i17, align 8
  store i32 0, ptr %__m.addr.i18, align 4
  %this1.i21 = load ptr, ptr %this.addr.i16, align 8
  %0 = load i32, ptr %__m.addr.i18, align 4
  %1 = load i64, ptr %__i.addr.i17, align 8
  store i64 %1, ptr %.atomictmp.i19, align 8
  switch i32 %0, label %monotonic.i26 [
    i32 1, label %acquire.i25
    i32 2, label %acquire.i25
    i32 3, label %release.i24
    i32 4, label %acqrel.i23
    i32 5, label %seqcst.i22
  ]

monotonic.i26:                                    ; preds = %entry
  %2 = load i64, ptr %.atomictmp.i19, align 8
  %3 = atomicrmw add ptr %this1.i21, i64 %2 monotonic, align 8
  store i64 %3, ptr %atomic-temp.i20, align 8
  br label %_ZNSt13__atomic_baseImE9fetch_addEmSt12memory_order.exit27

acquire.i25:                                      ; preds = %entry, %entry
  %4 = load i64, ptr %.atomictmp.i19, align 8
  %5 = atomicrmw add ptr %this1.i21, i64 %4 acquire, align 8
  store i64 %5, ptr %atomic-temp.i20, align 8
  br label %_ZNSt13__atomic_baseImE9fetch_addEmSt12memory_order.exit27

release.i24:                                      ; preds = %entry
  %6 = load i64, ptr %.atomictmp.i19, align 8
  %7 = atomicrmw add ptr %this1.i21, i64 %6 release, align 8
  store i64 %7, ptr %atomic-temp.i20, align 8
  br label %_ZNSt13__atomic_baseImE9fetch_addEmSt12memory_order.exit27

acqrel.i23:                                       ; preds = %entry
  %8 = load i64, ptr %.atomictmp.i19, align 8
  %9 = atomicrmw add ptr %this1.i21, i64 %8 acq_rel, align 8
  store i64 %9, ptr %atomic-temp.i20, align 8
  br label %_ZNSt13__atomic_baseImE9fetch_addEmSt12memory_order.exit27

seqcst.i22:                                       ; preds = %entry
  %10 = load i64, ptr %.atomictmp.i19, align 8
  %11 = atomicrmw add ptr %this1.i21, i64 %10 seq_cst, align 8
  store i64 %11, ptr %atomic-temp.i20, align 8
  br label %_ZNSt13__atomic_baseImE9fetch_addEmSt12memory_order.exit27

_ZNSt13__atomic_baseImE9fetch_addEmSt12memory_order.exit27: ; preds = %seqcst.i22, %acqrel.i23, %release.i24, %acquire.i25, %monotonic.i26
  %12 = load i64, ptr %atomic-temp.i20, align 8
  store i64 %12, ptr %count, align 8
  %13 = load i64, ptr %count, align 8
  store i64 %13, ptr %a, align 8
  %14 = load i64, ptr %extra_entropy.addr, align 8
  store i64 %14, ptr %b, align 8
  %15 = load i64, ptr %a, align 8
  %16 = load i64, ptr %b, align 8
  call void @_ZN7rocksdb17BijectiveHash2x64EmmPmS0_(i64 noundef %15, i64 noundef %16, ptr noundef %a, ptr noundef %b)
  store i64 0, ptr %i, align 8
  br label %for.cond

for.cond:                                         ; preds = %for.inc, %_ZNSt13__atomic_baseImE9fetch_addEmSt12memory_order.exit27
  %17 = load i64, ptr %i, align 8
  %pool_ = getelementptr inbounds %"class.rocksdb::UnpredictableUniqueIdGen", ptr %this1, i32 0, i32 0
  %call2 = call noundef i64 @_ZNKSt5arrayISt6atomicImELm4EE4sizeEv(ptr noundef nonnull align 8 dereferenceable(32) %pool_) #12
  %cmp = icmp ult i64 %17, %call2
  br i1 %cmp, label %for.body, label %for.end

for.body:                                         ; preds = %for.cond
  %pool_3 = getelementptr inbounds %"class.rocksdb::UnpredictableUniqueIdGen", ptr %this1, i32 0, i32 0
  %18 = load i64, ptr %i, align 8
  %call4 = call noundef nonnull align 8 dereferenceable(8) ptr @_ZNSt5arrayISt6atomicImELm4EEixEm(ptr noundef nonnull align 8 dereferenceable(32) %pool_3, i64 noundef %18) #4
  store ptr %call4, ptr %this.addr.i35, align 8
  store i32 0, ptr %__m.addr.i36, align 4
  %this1.i39 = load ptr, ptr %this.addr.i35, align 8
  %19 = load i32, ptr %__m.addr.i36, align 4
  %call.i40 = call noundef i32 @_ZStanSt12memory_orderSt23__memory_order_modifier(i32 noundef %19, i32 noundef 65535)
  store i32 %call.i40, ptr %__b.i37, align 4
  %20 = load i32, ptr %__m.addr.i36, align 4
  switch i32 %20, label %monotonic.i43 [
    i32 1, label %acquire.i42
    i32 2, label %acquire.i42
    i32 5, label %seqcst.i41
  ]

monotonic.i43:                                    ; preds = %for.body
  %21 = load atomic i64, ptr %this1.i39 monotonic, align 8
  store i64 %21, ptr %atomic-temp.i38, align 8
  br label %_ZNKSt13__atomic_baseImE4loadESt12memory_order.exit44

acquire.i42:                                      ; preds = %for.body, %for.body
  %22 = load atomic i64, ptr %this1.i39 acquire, align 8
  store i64 %22, ptr %atomic-temp.i38, align 8
  br label %_ZNKSt13__atomic_baseImE4loadESt12memory_order.exit44

seqcst.i41:                                       ; preds = %for.body
  %23 = load atomic i64, ptr %this1.i39 seq_cst, align 8
  store i64 %23, ptr %atomic-temp.i38, align 8
  br label %_ZNKSt13__atomic_baseImE4loadESt12memory_order.exit44

_ZNKSt13__atomic_baseImE4loadESt12memory_order.exit44: ; preds = %seqcst.i41, %acquire.i42, %monotonic.i43
  %24 = load i64, ptr %atomic-temp.i38, align 8
  %25 = load i64, ptr %a, align 8
  %xor = xor i64 %25, %24
  store i64 %xor, ptr %a, align 8
  %pool_6 = getelementptr inbounds %"class.rocksdb::UnpredictableUniqueIdGen", ptr %this1, i32 0, i32 0
  %26 = load i64, ptr %i, align 8
  %add = add i64 %26, 1
  %call7 = call noundef nonnull align 8 dereferenceable(8) ptr @_ZNSt5arrayISt6atomicImELm4EEixEm(ptr noundef nonnull align 8 dereferenceable(32) %pool_6, i64 noundef %add) #4
  store ptr %call7, ptr %this.addr.i28, align 8
  store i32 0, ptr %__m.addr.i29, align 4
  %this1.i31 = load ptr, ptr %this.addr.i28, align 8
  %27 = load i32, ptr %__m.addr.i29, align 4
  %call.i = call noundef i32 @_ZStanSt12memory_orderSt23__memory_order_modifier(i32 noundef %27, i32 noundef 65535)
  store i32 %call.i, ptr %__b.i, align 4
  %28 = load i32, ptr %__m.addr.i29, align 4
  switch i32 %28, label %monotonic.i34 [
    i32 1, label %acquire.i33
    i32 2, label %acquire.i33
    i32 5, label %seqcst.i32
  ]

monotonic.i34:                                    ; preds = %_ZNKSt13__atomic_baseImE4loadESt12memory_order.exit44
  %29 = load atomic i64, ptr %this1.i31 monotonic, align 8
  store i64 %29, ptr %atomic-temp.i30, align 8
  br label %_ZNKSt13__atomic_baseImE4loadESt12memory_order.exit

acquire.i33:                                      ; preds = %_ZNKSt13__atomic_baseImE4loadESt12memory_order.exit44, %_ZNKSt13__atomic_baseImE4loadESt12memory_order.exit44
  %30 = load atomic i64, ptr %this1.i31 acquire, align 8
  store i64 %30, ptr %atomic-temp.i30, align 8
  br label %_ZNKSt13__atomic_baseImE4loadESt12memory_order.exit

seqcst.i32:                                       ; preds = %_ZNKSt13__atomic_baseImE4loadESt12memory_order.exit44
  %31 = load atomic i64, ptr %this1.i31 seq_cst, align 8
  store i64 %31, ptr %atomic-temp.i30, align 8
  br label %_ZNKSt13__atomic_baseImE4loadESt12memory_order.exit

_ZNKSt13__atomic_baseImE4loadESt12memory_order.exit: ; preds = %seqcst.i32, %acquire.i33, %monotonic.i34
  %32 = load i64, ptr %atomic-temp.i30, align 8
  %33 = load i64, ptr %b, align 8
  %xor9 = xor i64 %33, %32
  store i64 %xor9, ptr %b, align 8
  %34 = load i64, ptr %a, align 8
  %35 = load i64, ptr %b, align 8
  call void @_ZN7rocksdb17BijectiveHash2x64EmmPmS0_(i64 noundef %34, i64 noundef %35, ptr noundef %a, ptr noundef %b)
  br label %for.inc

for.inc:                                          ; preds = %_ZNKSt13__atomic_baseImE4loadESt12memory_order.exit
  %36 = load i64, ptr %i, align 8
  %add10 = add i64 %36, 2
  store i64 %add10, ptr %i, align 8
  br label %for.cond, !llvm.loop !6

for.end:                                          ; preds = %for.cond
  %37 = load i64, ptr %a, align 8
  %38 = load ptr, ptr %lower.addr, align 8
  store i64 %37, ptr %38, align 8
  %39 = load i64, ptr %b, align 8
  %40 = load ptr, ptr %upper.addr, align 8
  store i64 %39, ptr %40, align 8
  %pool_11 = getelementptr inbounds %"class.rocksdb::UnpredictableUniqueIdGen", ptr %this1, i32 0, i32 0
  %41 = load i64, ptr %count, align 8
  %pool_12 = getelementptr inbounds %"class.rocksdb::UnpredictableUniqueIdGen", ptr %this1, i32 0, i32 0
  %call13 = call noundef i64 @_ZNKSt5arrayISt6atomicImELm4EE4sizeEv(ptr noundef nonnull align 8 dereferenceable(32) %pool_12) #12
  %sub = sub i64 %call13, 1
  %and = and i64 %41, %sub
  %call14 = call noundef nonnull align 8 dereferenceable(8) ptr @_ZNSt5arrayISt6atomicImELm4EEixEm(ptr noundef nonnull align 8 dereferenceable(32) %pool_11, i64 noundef %and) #4
  %42 = load i64, ptr %a, align 8
  store ptr %call14, ptr %this.addr.i, align 8
  store i64 %42, ptr %__i.addr.i, align 8
  store i32 0, ptr %__m.addr.i, align 4
  %this1.i = load ptr, ptr %this.addr.i, align 8
  %43 = load i32, ptr %__m.addr.i, align 4
  %44 = load i64, ptr %__i.addr.i, align 8
  store i64 %44, ptr %.atomictmp.i, align 8
  switch i32 %43, label %monotonic.i [
    i32 1, label %acquire.i
    i32 2, label %acquire.i
    i32 3, label %release.i
    i32 4, label %acqrel.i
    i32 5, label %seqcst.i
  ]

monotonic.i:                                      ; preds = %for.end
  %45 = load i64, ptr %.atomictmp.i, align 8
  %46 = atomicrmw add ptr %this1.i, i64 %45 monotonic, align 8
  store i64 %46, ptr %atomic-temp.i, align 8
  br label %_ZNSt13__atomic_baseImE9fetch_addEmSt12memory_order.exit

acquire.i:                                        ; preds = %for.end, %for.end
  %47 = load i64, ptr %.atomictmp.i, align 8
  %48 = atomicrmw add ptr %this1.i, i64 %47 acquire, align 8
  store i64 %48, ptr %atomic-temp.i, align 8
  br label %_ZNSt13__atomic_baseImE9fetch_addEmSt12memory_order.exit

release.i:                                        ; preds = %for.end
  %49 = load i64, ptr %.atomictmp.i, align 8
  %50 = atomicrmw add ptr %this1.i, i64 %49 release, align 8
  store i64 %50, ptr %atomic-temp.i, align 8
  br label %_ZNSt13__atomic_baseImE9fetch_addEmSt12memory_order.exit

acqrel.i:                                         ; preds = %for.end
  %51 = load i64, ptr %.atomictmp.i, align 8
  %52 = atomicrmw add ptr %this1.i, i64 %51 acq_rel, align 8
  store i64 %52, ptr %atomic-temp.i, align 8
  br label %_ZNSt13__atomic_baseImE9fetch_addEmSt12memory_order.exit

seqcst.i:                                         ; preds = %for.end
  %53 = load i64, ptr %.atomictmp.i, align 8
  %54 = atomicrmw add ptr %this1.i, i64 %53 seq_cst, align 8
  store i64 %54, ptr %atomic-temp.i, align 8
  br label %_ZNSt13__atomic_baseImE9fetch_addEmSt12memory_order.exit

_ZNSt13__atomic_baseImE9fetch_addEmSt12memory_order.exit: ; preds = %seqcst.i, %acqrel.i, %release.i, %acquire.i, %monotonic.i
  ret void
}

; Function Attrs: mustprogress uwtable
define void @_ZN7rocksdb24UnpredictableUniqueIdGen12GenerateNextEPmS1_(ptr noundef nonnull align 64 dereferenceable(40) %this, ptr noundef %upper, ptr noundef %lower) #0 align 2 {
entry:
  %this.addr = alloca ptr, align 8
  %upper.addr = alloca ptr, align 8
  %lower.addr = alloca ptr, align 8
  %extra_entropy = alloca i64, align 8
  store ptr %this, ptr %this.addr, align 8
  store ptr %upper, ptr %upper.addr, align 8
  store ptr %lower, ptr %lower.addr, align 8
  %this1 = load ptr, ptr %this.addr, align 8
  %0 = call i64 @llvm.x86.rdtsc()
  store i64 %0, ptr %extra_entropy, align 8
  %1 = load ptr, ptr %upper.addr, align 8
  %2 = load ptr, ptr %lower.addr, align 8
  %3 = load i64, ptr %extra_entropy, align 8
  call void @_ZN7rocksdb24UnpredictableUniqueIdGen23GenerateNextWithEntropyEPmS1_m(ptr noundef nonnull align 64 dereferenceable(40) %this1, ptr noundef %1, ptr noundef %2, i64 noundef %3)
  ret void
}