; Function Attrs: mustprogress uwtable
define void @_ZN7rocksdb24UnpredictableUniqueIdGen12GenerateNextEPmS1_(ptr noundef nonnull align 64 captures(none) dereferenceable(40) %this, ptr noundef writeonly captures(none) %upper, ptr noundef writeonly captures(none) %lower) local_unnamed_addr #0 align 2 {
entry:
  %a.i = alloca i64, align 8
  %b.i = alloca i64, align 8
  %0 = tail call i64 @llvm.x86.rdtsc()
  call void @llvm.lifetime.start.p0(i64 8, ptr nonnull %a.i)
  call void @llvm.lifetime.start.p0(i64 8, ptr nonnull %b.i)
  %counter_.i = getelementptr inbounds nuw i8, ptr %this, i64 32
  %1 = atomicrmw add ptr %counter_.i, i64 1 monotonic, align 8
  store i64 %1, ptr %a.i, align 8
  store i64 %0, ptr %b.i, align 8
  call void @_ZN7rocksdb17BijectiveHash2x64EmmPmS0_(i64 noundef %1, i64 noundef %0, ptr noundef nonnull %a.i, ptr noundef nonnull %b.i)
  br label %for.body.i

for.body.i:                                       ; preds = %for.body.i, %entry
  %cmp.i = phi i1 [ true, %entry ], [ false, %for.body.i ]
  %i.017.i = phi i64 [ 0, %entry ], [ 2, %for.body.i ]
  %arrayidx.i.i.i = getelementptr inbounds nuw [4 x %"struct.std::atomic"], ptr %this, i64 0, i64 %i.017.i
  %2 = load atomic i64, ptr %arrayidx.i.i.i monotonic, align 16
  %3 = load i64, ptr %a.i, align 8
  %xor.i = xor i64 %3, %2
  store i64 %xor.i, ptr %a.i, align 8
  %add.i = or disjoint i64 %i.017.i, 1
  %arrayidx.i.i15.i = getelementptr inbounds nuw [4 x %"struct.std::atomic"], ptr %this, i64 0, i64 %add.i
  %4 = load atomic i64, ptr %arrayidx.i.i15.i monotonic, align 8
  %5 = load i64, ptr %b.i, align 8
  %xor9.i = xor i64 %5, %4
  store i64 %xor9.i, ptr %b.i, align 8
  call void @_ZN7rocksdb17BijectiveHash2x64EmmPmS0_(i64 noundef %xor.i, i64 noundef %xor9.i, ptr noundef nonnull %a.i, ptr noundef nonnull %b.i)
  br i1 %cmp.i, label %for.body.i, label %_ZN7rocksdb24UnpredictableUniqueIdGen23GenerateNextWithEntropyEPmS1_m.exit, !llvm.loop !4

_ZN7rocksdb24UnpredictableUniqueIdGen23GenerateNextWithEntropyEPmS1_m.exit: ; preds = %for.body.i
  %6 = load i64, ptr %a.i, align 8
  store i64 %6, ptr %lower, align 8
  %7 = load i64, ptr %b.i, align 8
  store i64 %7, ptr %upper, align 8
  %and.i = and i64 %1, 3
  %arrayidx.i.i16.i = getelementptr inbounds nuw [4 x %"struct.std::atomic"], ptr %this, i64 0, i64 %and.i
  %8 = atomicrmw add ptr %arrayidx.i.i16.i, i64 %6 monotonic, align 8
  call void @llvm.lifetime.end.p0(i64 8, ptr nonnull %a.i)
  call void @llvm.lifetime.end.p0(i64 8, ptr nonnull %b.i)
  ret void
}